target datalayout = "e-m:e-p270:32:32-p271:32:32-p272:64:64-i64:64-i128:128-f80:128-n8:16:32:64-S128"
target triple = "x86_64-pc-linux-gnu"

; Function Attrs: mustprogress nounwind uwtable
define hidden noundef i32 @_ZNK3dpx14IndustryHeader12TCFromStringEPKc(ptr noundef nonnull align 4 dereferenceable(384) %0, ptr noundef %1) #6 align 2 {
  %3 = alloca i32, align 4
  %4 = alloca ptr, align 8
  %5 = alloca ptr, align 8
  %6 = alloca i32, align 4
  %7 = alloca i32, align 4
  %8 = alloca i32, align 4
  %9 = alloca i8, align 1
  %10 = alloca i32, align 4
  %11 = alloca i32, align 4
  %12 = alloca i32, align 4
  store ptr %0, ptr %4, align 8, !tbaa !21
  store ptr %1, ptr %5, align 8, !tbaa !45
  %13 = load ptr, ptr %5, align 8, !tbaa !45
  %14 = call noundef i64 @_ZN11OpenImageIO6v3_1_07Strutil11safe_strlenEPKcm(ptr noundef %13, i64 noundef 12) #5
  %15 = icmp ne i64 %14, 11
  br i1 %15, label %16, label %17

16:                                               ; preds = %2
  store i32 -1, ptr %3, align 4
  br label %69

17:                                               ; preds = %2
  call void @llvm.lifetime.start.p0(i64 4, ptr %6) #5
  store i32 0, ptr %6, align 4, !tbaa !42
  call void @llvm.lifetime.start.p0(i64 4, ptr %7) #5
  call void @llvm.lifetime.start.p0(i64 4, ptr %8) #5
  store i32 0, ptr %8, align 4, !tbaa !42
  call void @llvm.lifetime.start.p0(i64 1, ptr %9) #5
  call void @llvm.lifetime.start.p0(i64 4, ptr %10) #5
  call void @llvm.lifetime.start.p0(i64 4, ptr %11) #5
  store i32 0, ptr %7, align 4, !tbaa !42
  br label %18

18:                                               ; preds = %61, %17
  %19 = load i32, ptr %7, align 4, !tbaa !42
  %20 = icmp slt i32 %19, 8
  br i1 %20, label %21, label %66

21:                                               ; preds = %18
  %22 = load i32, ptr %8, align 4, !tbaa !42
  %23 = srem i32 %22, 3
  %24 = icmp eq i32 %23, 2
  %25 = select i1 %24, i32 1, i32 0
  %26 = load i32, ptr %8, align 4, !tbaa !42
  %27 = add nsw i32 %26, %25
  store i32 %27, ptr %8, align 4, !tbaa !42
  %28 = load ptr, ptr %5, align 8, !tbaa !45
  %29 = load i32, ptr %8, align 4, !tbaa !42
  %30 = sext i32 %29 to i64
  %31 = getelementptr inbounds i8, ptr %28, i64 %30
  %32 = load i8, ptr %31, align 1, !tbaa !8
  store i8 %32, ptr %9, align 1, !tbaa !8
  %33 = load i8, ptr %9, align 1, !tbaa !8
  %34 = zext i8 %33 to i32
  %35 = icmp slt i32 %34, 48
  br i1 %35, label %40, label %36

36:                                               ; preds = %21
  %37 = load i8, ptr %9, align 1, !tbaa !8
  %38 = zext i8 %37 to i32
  %39 = icmp sgt i32 %38, 57
  br i1 %39, label %40, label %41

40:                                               ; preds = %36, %21
  store i32 -1, ptr %3, align 4
  store i32 1, ptr %12, align 4
  br label %68

41:                                               ; preds = %36
  %42 = load i8, ptr %9, align 1, !tbaa !8
  %43 = zext i8 %42 to i32
  %44 = sub nsw i32 %43, 48
  %45 = load i32, ptr %7, align 4, !tbaa !42
  %46 = mul nsw i32 %45, 4
  %47 = sub nsw i32 28, %46
  %48 = shl i32 %44, %47
  store i32 %48, ptr %10, align 4, !tbaa !42
  %49 = load i32, ptr %7, align 4, !tbaa !42
  %50 = mul nsw i32 %49, 4
  %51 = sub nsw i32 28, %50
  %52 = shl i32 15, %51
  store i32 %52, ptr %11, align 4, !tbaa !42
  %53 = load i32, ptr %6, align 4, !tbaa !42
  %54 = load i32, ptr %11, align 4, !tbaa !42
  %55 = xor i32 %54, -1
  %56 = and i32 %53, %55
  %57 = load i32, ptr %10, align 4, !tbaa !42
  %58 = load i32, ptr %11, align 4, !tbaa !42
  %59 = and i32 %57, %58
  %60 = or i32 %56, %59
  store i32 %60, ptr %6, align 4, !tbaa !42
  br label %61

61:                                               ; preds = %41
  %62 = load i32, ptr %7, align 4, !tbaa !42
  %63 = add nsw i32 %62, 1
  store i32 %63, ptr %7, align 4, !tbaa !42
  %64 = load i32, ptr %8, align 4, !tbaa !42
  %65 = add nsw i32 %64, 1
  store i32 %65, ptr %8, align 4, !tbaa !42
  br label %18, !llvm.loop !119

66:                                               ; preds = %18
  %67 = load i32, ptr %6, align 4, !tbaa !42
  store i32 %67, ptr %3, align 4
  store i32 1, ptr %12, align 4
  br label %68

68:                                               ; preds = %66, %40
  call void @llvm.lifetime.end.p0(i64 4, ptr %11) #5
  call void @llvm.lifetime.end.p0(i64 4, ptr %10) #5
  call void @llvm.lifetime.end.p0(i64 1, ptr %9) #5
  call void @llvm.lifetime.end.p0(i64 4, ptr %8) #5
  call void @llvm.lifetime.end.p0(i64 4, ptr %7) #5
  call void @llvm.lifetime.end.p0(i64 4, ptr %6) #5
  br label %69

69:                                               ; preds = %68, %16
  %70 = load i32, ptr %3, align 4
  ret i32 %70
}