; Function Attrs: mustprogress nounwind uwtable
define hidden noundef i32 @_ZNK3dpx14IndustryHeader12TCFromStringEPKc(ptr noundef nonnull readnone align 4 captures(none) dereferenceable(384) %0, ptr noundef %1) local_unnamed_addr #6 align 2 {
  %3 = tail call noundef i64 @_ZN11OpenImageIO6v3_1_07Strutil11safe_strlenEPKcm(ptr noundef %1, i64 noundef 12) #29
  %.not = icmp eq i64 %3, 11
  br i1 %.not, label %.preheader, label %.loopexit

.preheader:                                       ; preds = %2, %12
  %.02026 = phi i32 [ %21, %12 ], [ 0, %2 ]
  %.02125 = phi i32 [ %22, %12 ], [ 0, %2 ]
  %.02224 = phi i32 [ %23, %12 ], [ 0, %2 ]
  %4 = srem i32 %.02224, 3
  %5 = icmp eq i32 %4, 2
  %6 = zext i1 %5 to i32
  %7 = add nsw i32 %.02224, %6
  %8 = sext i32 %7 to i64
  %9 = getelementptr inbounds i8, ptr %1, i64 %8
  %10 = load i8, ptr %9, align 1, !tbaa !14
  %11 = add i8 %10, -58
  %or.cond = icmp ult i8 %11, -10
  br i1 %or.cond, label %.loopexit, label %12

12:                                               ; preds = %.preheader
  %13 = shl nuw nsw i32 %.02125, 2
  %14 = sub nuw nsw i32 28, %13
  %15 = shl nuw i32 15, %14
  %16 = xor i32 %15, -1
  %17 = and i32 %.02026, %16
  %18 = and i8 %10, 15
  %19 = zext nneg i8 %18 to i32
  %20 = shl nuw i32 %19, %14
  %21 = or i32 %20, %17
  %22 = add nuw nsw i32 %.02125, 1
  %23 = add nsw i32 %7, 1
  %exitcond.not = icmp eq i32 %22, 8
  br i1 %exitcond.not, label %.loopexit, label %.preheader, !llvm.loop !87

.loopexit:                                        ; preds = %.preheader, %12, %2
  %.0 = phi i32 [ -1, %2 ], [ %21, %12 ], [ -1, %.preheader ]
  ret i32 %.0
}